; Function Attrs: mustprogress nofree norecurse nosync nounwind willreturn memory(argmem: read) uwtable
define noundef zeroext i1 @_ZNK32pxrInternal_v0_24__pxrReserved__10GfMatrix2feqERKNS_10GfMatrix2dE(ptr noundef nonnull readonly align 4 captures(none) dereferenceable(16) %0, ptr noundef nonnull readonly align 8 captures(none) dereferenceable(32) %1) local_unnamed_addr #6 align 2 {
  %3 = load float, ptr %0, align 4
  %4 = fpext float %3 to double
  %5 = load double, ptr %1, align 8
  %6 = fcmp oeq double %5, %4
  br i1 %6, label %7, label %28

7:                                                ; preds = %2
  %8 = getelementptr inbounds nuw i8, ptr %0, i64 4
  %9 = load float, ptr %8, align 4
  %10 = fpext float %9 to double
  %11 = getelementptr inbounds nuw i8, ptr %1, i64 8
  %12 = load double, ptr %11, align 8
  %13 = fcmp oeq double %12, %10
  br i1 %13, label %14, label %28

14:                                               ; preds = %7
  %15 = getelementptr inbounds nuw i8, ptr %0, i64 8
  %16 = load float, ptr %15, align 4
  %17 = fpext float %16 to double
  %18 = getelementptr inbounds nuw i8, ptr %1, i64 16
  %19 = load double, ptr %18, align 8
  %20 = fcmp oeq double %19, %17
  br i1 %20, label %21, label %28

21:                                               ; preds = %14
  %22 = getelementptr inbounds nuw i8, ptr %0, i64 12
  %23 = load float, ptr %22, align 4
  %24 = fpext float %23 to double
  %25 = getelementptr inbounds nuw i8, ptr %1, i64 24
  %26 = load double, ptr %25, align 8
  %27 = fcmp oeq double %26, %24
  br label %28

28:                                               ; preds = %21, %14, %7, %2
  %29 = phi i1 [ false, %14 ], [ false, %7 ], [ false, %2 ], [ %27, %21 ]
  ret i1 %29
}